; Function Attrs: mustprogress nofree norecurse nosync nounwind willreturn memory(none) uwtable
define i32 @ossl_qrl_get_suite_cipher_tag_len(i32 noundef %0) local_unnamed_addr #4 {
  %switch.tableidx = add i32 %0, -1
  %2 = icmp ult i32 %switch.tableidx, 3
  br i1 %2, label %switch.lookup, label %get_suite.exit

switch.lookup:                                    ; preds = %1
  %3 = zext nneg i32 %switch.tableidx to i64
  %switch.gep = getelementptr inbounds nuw [3 x ptr], ptr @switch.table.ossl_qrl_get_suite_max_forged_pkt, i64 0, i64 %3
  %switch.load = load ptr, ptr %switch.gep, align 8
  %4 = getelementptr inbounds nuw i8, ptr %switch.load, i64 28
  %5 = load i32, ptr %4, align 4, !tbaa !22
  br label %get_suite.exit

get_suite.exit:                                   ; preds = %1, %switch.lookup
  %6 = phi i32 [ %5, %switch.lookup ], [ 0, %1 ]
  ret i32 %6
}